target datalayout = "e-m:e-p270:32:32-p271:32:32-p272:64:64-i64:64-i128:128-f80:128-n8:16:32:64-S128"
target triple = "x86_64-pc-linux-gnu"

%struct.rb_ractor_struct = type { %struct.rb_ractor_pub, %struct.rb_ractor_sync, i64, %union.pthread_cond_t, %struct.anon.17, i64, i64, i64, i32, %struct.ccan_list_node, ptr, ptr, i64, i64, i64, i64, i64, i64, ptr }
%struct.rb_ractor_pub = type { i64, i32, %struct.rb_hook_list_struct }
%struct.rb_hook_list_struct = type { ptr, i32, i32, i8, i8 }
%struct.rb_ractor_sync = type { %union.pthread_mutex_t, i8, i8, %struct.rb_ractor_queue, %struct.rb_ractor_queue, %struct.rb_ractor_basket, %struct.ractor_wait }
%union.pthread_mutex_t = type { %struct.__pthread_mutex_s }
%struct.__pthread_mutex_s = type { i32, i32, i32, i32, i32, i16, i16, %struct.__pthread_internal_list }
%struct.__pthread_internal_list = type { ptr, ptr }
%struct.rb_ractor_queue = type { ptr, i32, i32, i32, i32, i32 }
%struct.rb_ractor_basket = type { %union.anon.13, i64, %union.anon.14 }
%union.anon.13 = type { i32 }
%union.anon.14 = type { %struct.anon.15 }
%struct.anon.15 = type { i64, i8 }
%struct.ractor_wait = type { i32, i32, ptr }
%union.pthread_cond_t = type { %struct.__pthread_cond_s }
%struct.__pthread_cond_s = type { %union.__atomic_wide_counter, %union.__atomic_wide_counter, [2 x i32], [2 x i32], i32, i32, [2 x i32] }
%union.__atomic_wide_counter = type { i64 }
%struct.anon.17 = type { %struct.ccan_list_head, i32, i32, i32, %struct.rb_thread_sched, ptr, ptr }
%struct.ccan_list_head = type { %struct.ccan_list_node }
%struct.rb_thread_sched = type { %union.pthread_mutex_t, ptr, i8, i8, i8, %struct.ccan_list_head, i32, %struct.ccan_list_node }
%struct.ccan_list_node = type { ptr, ptr }
%struct.rb_vm_struct = type { i64, %struct.anon, ptr, i64, %struct.ccan_list_head, i32, i8, i64, ptr, [5 x i64], i64, i64, i64, i64, i64, i64, i64, i64, i64, ptr, ptr, ptr, %struct.anon.3, ptr, i32, %struct.ccan_list_head, %union.pthread_mutex_t, i64, i64, i64, i64, i32, %struct.anon.4, ptr, ptr, ptr, ptr, ptr, ptr, ptr, ptr, i64, [1023 x ptr], %struct.anon.5 }
%struct.anon = type { %struct.ccan_list_head, i32, i32, ptr, ptr, %struct.anon.0, %struct.anon.2 }
%struct.anon.0 = type { %union.pthread_mutex_t, ptr, i32, %union.pthread_cond_t, i8 }
%struct.anon.2 = type { %union.pthread_mutex_t, ptr, i8, %union.pthread_cond_t, i32, i32, i32, i32, %struct.ccan_list_head, i32, %struct.ccan_list_head, %struct.ccan_list_head, %struct.ccan_list_head, i8, %union.pthread_cond_t, %union.pthread_cond_t, i8, i32, i32 }
%struct.anon.3 = type { [65 x i64] }
%struct.anon.4 = type { ptr, ptr }
%struct.anon.5 = type { i64, i64, i64, i64 }
%struct.rb_thread_struct = type { %struct.ccan_list_node, i64, ptr, ptr, ptr, ptr, %struct.rb_thread_sched_item, i8, i32, i64, ptr, i64, i64, i8, i8, i32, ptr, i64, i64, i64, i64, %union.pthread_mutex_t, %struct.rb_unblock_callback, i64, ptr, %struct.ccan_list_head, ptr, %union.anon, i32, i64, ptr, i64, i32, i64, ptr, %struct.rb_ext_config }
%struct.rb_thread_sched_item = type { %struct.anon.8, %struct.rb_thread_sched_waiting, i8, i8, ptr, ptr }
%struct.anon.8 = type { %struct.ccan_list_node, %struct.ccan_list_node, %struct.ccan_list_node, %struct.ccan_list_node, %struct.ccan_list_node }
%struct.rb_thread_sched_waiting = type { i32, %struct.anon.9, %struct.ccan_list_node }
%struct.anon.9 = type { i64, i32, i32 }
%struct.rb_unblock_callback = type { ptr, ptr }
%union.anon = type { %struct.anon.10 }
%struct.anon.10 = type { i64, i64, i32 }
%struct.rb_ext_config = type { i8 }

@ruby_single_main_ractor = external global ptr, align 8

; Function Attrs: inlinehint nounwind sspstrong uwtable
define internal void @ccan_list_head_init(ptr noundef %0) #4 {
  %2 = alloca ptr, align 8
  store ptr %0, ptr %2, align 8, !tbaa !81
  %3 = load ptr, ptr %2, align 8, !tbaa !81
  %4 = getelementptr inbounds nuw %struct.ccan_list_head, ptr %3, i32 0, i32 0
  %5 = load ptr, ptr %2, align 8, !tbaa !81
  %6 = getelementptr inbounds nuw %struct.ccan_list_head, ptr %5, i32 0, i32 0
  %7 = getelementptr inbounds nuw %struct.ccan_list_node, ptr %6, i32 0, i32 1
  store ptr %4, ptr %7, align 8, !tbaa !83
  %8 = load ptr, ptr %2, align 8, !tbaa !81
  %9 = getelementptr inbounds nuw %struct.ccan_list_head, ptr %8, i32 0, i32 0
  %10 = getelementptr inbounds nuw %struct.ccan_list_node, ptr %9, i32 0, i32 0
  store ptr %4, ptr %10, align 8, !tbaa !84
  ret void
}

; Function Attrs: nounwind sspstrong uwtable
define hidden void @rb_ractor_living_threads_init(ptr noundef %0) #0 {
  %2 = alloca ptr, align 8
  store ptr %0, ptr %2, align 8, !tbaa !7
  %3 = load ptr, ptr %2, align 8, !tbaa !7
  %4 = getelementptr inbounds nuw %struct.rb_ractor_struct, ptr %3, i32 0, i32 4
  %5 = getelementptr inbounds nuw %struct.anon.17, ptr %4, i32 0, i32 0
  call void @ccan_list_head_init(ptr noundef %5)
  %6 = load ptr, ptr %2, align 8, !tbaa !7
  %7 = getelementptr inbounds nuw %struct.rb_ractor_struct, ptr %6, i32 0, i32 4
  %8 = getelementptr inbounds nuw %struct.anon.17, ptr %7, i32 0, i32 1
  store i32 0, ptr %8, align 8, !tbaa !78
  %9 = load ptr, ptr %2, align 8, !tbaa !7
  %10 = getelementptr inbounds nuw %struct.rb_ractor_struct, ptr %9, i32 0, i32 4
  %11 = getelementptr inbounds nuw %struct.anon.17, ptr %10, i32 0, i32 2
  store i32 0, ptr %11, align 4, !tbaa !79
  ret void
}

; Function Attrs: nounwind sspstrong uwtable
define hidden void @rb_ractor_atfork(ptr noundef %0, ptr noundef %1) #0 {
  %3 = alloca ptr, align 8
  %4 = alloca ptr, align 8
  store ptr %0, ptr %3, align 8, !tbaa !44
  store ptr %1, ptr %4, align 8, !tbaa !46
  %5 = load ptr, ptr %3, align 8, !tbaa !44
  %6 = getelementptr inbounds nuw %struct.rb_vm_struct, ptr %5, i32 0, i32 1
  %7 = getelementptr inbounds nuw %struct.anon, ptr %6, i32 0, i32 1
  store i32 0, ptr %7, align 8, !tbaa !47
  %8 = load ptr, ptr %3, align 8, !tbaa !44
  %9 = getelementptr inbounds nuw %struct.rb_vm_struct, ptr %8, i32 0, i32 1
  %10 = getelementptr inbounds nuw %struct.anon, ptr %9, i32 0, i32 2
  store i32 0, ptr %10, align 4, !tbaa !62
  %11 = load ptr, ptr %4, align 8, !tbaa !46
  %12 = getelementptr inbounds nuw %struct.rb_thread_struct, ptr %11, i32 0, i32 2
  %13 = load ptr, ptr %12, align 8, !tbaa !63
  store ptr %13, ptr @ruby_single_main_ractor, align 8, !tbaa !7
  %14 = load ptr, ptr %4, align 8, !tbaa !46
  %15 = getelementptr inbounds nuw %struct.rb_thread_struct, ptr %14, i32 0, i32 2
  %16 = load ptr, ptr %15, align 8, !tbaa !63
  %17 = getelementptr inbounds nuw %struct.rb_ractor_struct, ptr %16, i32 0, i32 8
  store i32 0, ptr %17, align 8, !tbaa !77
  %18 = load ptr, ptr %4, align 8, !tbaa !46
  %19 = getelementptr inbounds nuw %struct.rb_thread_struct, ptr %18, i32 0, i32 2
  %20 = load ptr, ptr %19, align 8, !tbaa !63
  call void @rb_ractor_living_threads_init(ptr noundef %20)
  %21 = load ptr, ptr %4, align 8, !tbaa !46
  %22 = getelementptr inbounds nuw %struct.rb_thread_struct, ptr %21, i32 0, i32 2
  %23 = load ptr, ptr %22, align 8, !tbaa !63
  %24 = load ptr, ptr %4, align 8, !tbaa !46
  call void @rb_ractor_living_threads_insert(ptr noundef %23, ptr noundef %24)
  ret void
}