; Function Attrs: nounwind sspstrong uwtable
define hidden void @rb_ractor_atfork(ptr noundef writeonly captures(none) initializes((24, 32)) %0, ptr noundef initializes((0, 16)) %1) local_unnamed_addr #0 {
  %3 = getelementptr inbounds nuw i8, ptr %0, i64 24
  store i32 0, ptr %3, align 8, !tbaa !41
  %4 = getelementptr inbounds nuw i8, ptr %0, i64 28
  store i32 0, ptr %4, align 4, !tbaa !56
  %5 = getelementptr inbounds nuw i8, ptr %1, i64 24
  %6 = load ptr, ptr %5, align 8, !tbaa !57
  store ptr %6, ptr @ruby_single_main_ractor, align 8, !tbaa !39
  %7 = getelementptr inbounds nuw i8, ptr %6, i64 424
  store i32 0, ptr %7, align 8, !tbaa !72
  %8 = getelementptr inbounds nuw i8, ptr %6, i64 256
  %9 = getelementptr inbounds nuw i8, ptr %6, i64 264
  store ptr %8, ptr %9, align 8, !tbaa !73
  store ptr %8, ptr %8, align 8, !tbaa !74
  %10 = getelementptr inbounds nuw i8, ptr %6, i64 272
  store i32 0, ptr %10, align 8, !tbaa !75
  %11 = getelementptr inbounds nuw i8, ptr %6, i64 276
  store i32 0, ptr %11, align 4, !tbaa !76
  tail call void @rb_ractor_living_threads_insert(ptr noundef %6, ptr noundef %1)
  ret void
}